(dp1
S'cluster_address'
p2
S'taito.csc.fi'
p3
sS'username'
p4
S'svanni'
p5
sS'local_folder'
p6
S'./results'
p7
sS'remote_output_folder'
p8
S'/wrk/svanni/Laskenta/Output/results'
p9
sS'remote_repo_path'
p10
S'/homeappl/home/svanni/Laskenta/Models/CxSystem'
p11
s.